target datalayout = "e-m:e-p270:32:32-p271:32:32-p272:64:64-i64:64-i128:128-f80:128-n8:16:32:64-S128"
target triple = "x86_64-pc-linux-gnu"

%struct._object = type { %union.anon.41, ptr }
%union.anon.41 = type { i64 }
%struct.PyVarObject = type { %struct._object, i64 }
%struct.PyTupleObject = type { %struct.PyVarObject, [1 x ptr] }
%struct._typeobject = type { %struct.PyVarObject, ptr, i64, i64, ptr, i64, ptr, ptr, ptr, ptr, ptr, ptr, ptr, ptr, ptr, ptr, ptr, ptr, ptr, i64, ptr, ptr, ptr, ptr, i64, ptr, ptr, ptr, ptr, ptr, ptr, ptr, ptr, ptr, i64, ptr, ptr, ptr, ptr, ptr, ptr, ptr, ptr, ptr, ptr, ptr, i32, ptr, ptr, i8, i16 }
%struct.PyMemberDef = type { ptr, i32, i64, i32, ptr }

@PyExc_SystemError = external global ptr, align 8
@.str.4 = private unnamed_addr constant [61 x i8] c"In structseq_repr(), member %zd name is NULL for type %.500s\00", align 1

; Function Attrs: nounwind uwtable
define dso_local ptr @PyStructSequence_GetItem(ptr noundef %0, i64 noundef %1) #0 {
  %3 = alloca ptr, align 8
  %4 = alloca i64, align 8
  store ptr %0, ptr %3, align 8, !tbaa !12
  store i64 %1, ptr %4, align 8, !tbaa !9
  %5 = load ptr, ptr %3, align 8, !tbaa !12
  %6 = getelementptr inbounds nuw %struct.PyTupleObject, ptr %5, i32 0, i32 1
  %7 = load i64, ptr %4, align 8, !tbaa !9
  %8 = getelementptr [1 x ptr], ptr %6, i64 0, i64 %7
  %9 = load ptr, ptr %8, align 8, !tbaa !12
  ret ptr %9
}

; Function Attrs: inlinehint nounwind uwtable
define internal i64 @Py_SIZE(ptr noundef %0) #3 {
  %2 = alloca ptr, align 8
  store ptr %0, ptr %2, align 8, !tbaa !12
  %3 = load ptr, ptr %2, align 8, !tbaa !12
  %4 = getelementptr inbounds nuw %struct.PyVarObject, ptr %3, i32 0, i32 1
  %5 = load i64, ptr %4, align 8, !tbaa !26
  ret i64 %5
}

; Function Attrs: inlinehint nounwind uwtable
define internal ptr @_Py_TYPE(ptr noundef %0) #3 {
  %2 = alloca ptr, align 8
  store ptr %0, ptr %2, align 8, !tbaa !12
  %3 = load ptr, ptr %2, align 8, !tbaa !12
  %4 = getelementptr inbounds nuw %struct._object, ptr %3, i32 0, i32 1
  %5 = load ptr, ptr %4, align 8, !tbaa !36
  ret ptr %5
}

; Function Attrs: nounwind uwtable
define internal ptr @structseq_repr(ptr noundef %0) #0 {
  %2 = alloca ptr, align 8
  %3 = alloca ptr, align 8
  %4 = alloca ptr, align 8
  %5 = alloca i64, align 8
  %6 = alloca i64, align 8
  %7 = alloca ptr, align 8
  %8 = alloca i32, align 4
  %9 = alloca i64, align 8
  %10 = alloca ptr, align 8
  %11 = alloca ptr, align 8
  store ptr %0, ptr %3, align 8, !tbaa !11
  call void @llvm.lifetime.start.p0(i64 8, ptr %4) #9
  %12 = load ptr, ptr %3, align 8, !tbaa !11
  %13 = call ptr @_Py_TYPE(ptr noundef %12)
  store ptr %13, ptr %4, align 8, !tbaa !4
  call void @llvm.lifetime.start.p0(i64 8, ptr %5) #9
  %14 = load ptr, ptr %4, align 8, !tbaa !4
  %15 = getelementptr inbounds nuw %struct._typeobject, ptr %14, i32 0, i32 1
  %16 = load ptr, ptr %15, align 8, !tbaa !16
  %17 = call i64 @strlen(ptr noundef %16) #10
  store i64 %17, ptr %5, align 8, !tbaa !9
  call void @llvm.lifetime.start.p0(i64 8, ptr %6) #9
  %18 = load i64, ptr %5, align 8, !tbaa !9
  %19 = add i64 %18, 1
  %20 = load ptr, ptr %3, align 8, !tbaa !11
  %21 = call i64 @Py_SIZE(ptr noundef %20)
  %22 = mul i64 %21, 5
  %23 = add i64 %19, %22
  %24 = add i64 %23, 1
  store i64 %24, ptr %6, align 8, !tbaa !9
  call void @llvm.lifetime.start.p0(i64 8, ptr %7) #9
  %25 = load i64, ptr %6, align 8, !tbaa !9
  %26 = call ptr @PyUnicodeWriter_Create(i64 noundef %25)
  store ptr %26, ptr %7, align 8, !tbaa !77
  %27 = load ptr, ptr %7, align 8, !tbaa !77
  %28 = icmp eq ptr %27, null
  br i1 %28, label %29, label %30

29:                                               ; preds = %1
  store ptr null, ptr %2, align 8
  store i32 1, ptr %8, align 4
  br label %122

30:                                               ; preds = %1
  %31 = load ptr, ptr %7, align 8, !tbaa !77
  %32 = load ptr, ptr %4, align 8, !tbaa !4
  %33 = getelementptr inbounds nuw %struct._typeobject, ptr %32, i32 0, i32 1
  %34 = load ptr, ptr %33, align 8, !tbaa !16
  %35 = load i64, ptr %5, align 8, !tbaa !9
  %36 = call i32 @PyUnicodeWriter_WriteUTF8(ptr noundef %31, ptr noundef %34, i64 noundef %35)
  %37 = icmp slt i32 %36, 0
  br i1 %37, label %38, label %39

38:                                               ; preds = %30
  br label %120

39:                                               ; preds = %30
  %40 = load ptr, ptr %7, align 8, !tbaa !77
  %41 = call i32 @PyUnicodeWriter_WriteChar(ptr noundef %40, i32 noundef 40)
  %42 = icmp slt i32 %41, 0
  br i1 %42, label %43, label %44

43:                                               ; preds = %39
  br label %120

44:                                               ; preds = %39
  call void @llvm.lifetime.start.p0(i64 8, ptr %9) #9
  store i64 0, ptr %9, align 8, !tbaa !9
  br label %45

45:                                               ; preds = %107, %44
  %46 = load i64, ptr %9, align 8, !tbaa !9
  %47 = load ptr, ptr %3, align 8, !tbaa !11
  %48 = call i64 @Py_SIZE(ptr noundef %47)
  %49 = icmp slt i64 %46, %48
  br i1 %49, label %51, label %50

50:                                               ; preds = %45
  store i32 3, ptr %8, align 4
  br label %110

51:                                               ; preds = %45
  %52 = load i64, ptr %9, align 8, !tbaa !9
  %53 = icmp sgt i64 %52, 0
  br i1 %53, label %54, label %65

54:                                               ; preds = %51
  %55 = load ptr, ptr %7, align 8, !tbaa !77
  %56 = call i32 @PyUnicodeWriter_WriteChar(ptr noundef %55, i32 noundef 44)
  %57 = icmp slt i32 %56, 0
  br i1 %57, label %58, label %59

58:                                               ; preds = %54
  store i32 2, ptr %8, align 4
  br label %110

59:                                               ; preds = %54
  %60 = load ptr, ptr %7, align 8, !tbaa !77
  %61 = call i32 @PyUnicodeWriter_WriteChar(ptr noundef %60, i32 noundef 32)
  %62 = icmp slt i32 %61, 0
  br i1 %62, label %63, label %64

63:                                               ; preds = %59
  store i32 2, ptr %8, align 4
  br label %110

64:                                               ; preds = %59
  br label %65

65:                                               ; preds = %64, %51
  call void @llvm.lifetime.start.p0(i64 8, ptr %10) #9
  %66 = load ptr, ptr %4, align 8, !tbaa !4
  %67 = getelementptr inbounds nuw %struct._typeobject, ptr %66, i32 0, i32 28
  %68 = load ptr, ptr %67, align 8, !tbaa !62
  %69 = load i64, ptr %9, align 8, !tbaa !9
  %70 = getelementptr %struct.PyMemberDef, ptr %68, i64 %69
  %71 = getelementptr inbounds nuw %struct.PyMemberDef, ptr %70, i32 0, i32 0
  %72 = load ptr, ptr %71, align 8, !tbaa !43
  store ptr %72, ptr %10, align 8, !tbaa !79
  %73 = load ptr, ptr %10, align 8, !tbaa !79
  %74 = icmp eq ptr %73, null
  br i1 %74, label %75, label %82

75:                                               ; preds = %65
  %76 = load ptr, ptr @PyExc_SystemError, align 8, !tbaa !12
  %77 = load i64, ptr %9, align 8, !tbaa !9
  %78 = load ptr, ptr %4, align 8, !tbaa !4
  %79 = getelementptr inbounds nuw %struct._typeobject, ptr %78, i32 0, i32 1
  %80 = load ptr, ptr %79, align 8, !tbaa !16
  %81 = call ptr (ptr, ptr, ...) @PyErr_Format(ptr noundef %76, ptr noundef @.str.4, i64 noundef %77, ptr noundef %80)
  store i32 2, ptr %8, align 4
  br label %104

82:                                               ; preds = %65
  %83 = load ptr, ptr %7, align 8, !tbaa !77
  %84 = load ptr, ptr %10, align 8, !tbaa !79
  %85 = call i32 @PyUnicodeWriter_WriteUTF8(ptr noundef %83, ptr noundef %84, i64 noundef -1)
  %86 = icmp slt i32 %85, 0
  br i1 %86, label %87, label %88

87:                                               ; preds = %82
  store i32 2, ptr %8, align 4
  br label %104

88:                                               ; preds = %82
  %89 = load ptr, ptr %7, align 8, !tbaa !77
  %90 = call i32 @PyUnicodeWriter_WriteChar(ptr noundef %89, i32 noundef 61)
  %91 = icmp slt i32 %90, 0
  br i1 %91, label %92, label %93

92:                                               ; preds = %88
  store i32 2, ptr %8, align 4
  br label %104

93:                                               ; preds = %88
  call void @llvm.lifetime.start.p0(i64 8, ptr %11) #9
  %94 = load ptr, ptr %3, align 8, !tbaa !11
  %95 = load i64, ptr %9, align 8, !tbaa !9
  %96 = call ptr @PyStructSequence_GetItem(ptr noundef %94, i64 noundef %95)
  store ptr %96, ptr %11, align 8, !tbaa !12
  %97 = load ptr, ptr %7, align 8, !tbaa !77
  %98 = load ptr, ptr %11, align 8, !tbaa !12
  %99 = call i32 @PyUnicodeWriter_WriteRepr(ptr noundef %97, ptr noundef %98)
  %100 = icmp slt i32 %99, 0
  br i1 %100, label %101, label %102

101:                                              ; preds = %93
  store i32 2, ptr %8, align 4
  br label %103

102:                                              ; preds = %93
  store i32 0, ptr %8, align 4
  br label %103

103:                                              ; preds = %101, %102
  call void @llvm.lifetime.end.p0(i64 8, ptr %11) #9
  br label %104

104:                                              ; preds = %92, %87, %75, %103
  call void @llvm.lifetime.end.p0(i64 8, ptr %10) #9
  %105 = load i32, ptr %8, align 4
  switch i32 %105, label %110 [
    i32 0, label %106
  ]

106:                                              ; preds = %104
  br label %107

107:                                              ; preds = %106
  %108 = load i64, ptr %9, align 8, !tbaa !9
  %109 = add i64 %108, 1
  store i64 %109, ptr %9, align 8, !tbaa !9
  br label %45, !llvm.loop !80

110:                                              ; preds = %63, %58, %104, %50
  call void @llvm.lifetime.end.p0(i64 8, ptr %9) #9
  %111 = load i32, ptr %8, align 4
  switch i32 %111, label %122 [
    i32 3, label %112
    i32 2, label %120
  ]

112:                                              ; preds = %110
  %113 = load ptr, ptr %7, align 8, !tbaa !77
  %114 = call i32 @PyUnicodeWriter_WriteChar(ptr noundef %113, i32 noundef 41)
  %115 = icmp slt i32 %114, 0
  br i1 %115, label %116, label %117

116:                                              ; preds = %112
  br label %120

117:                                              ; preds = %112
  %118 = load ptr, ptr %7, align 8, !tbaa !77
  %119 = call ptr @PyUnicodeWriter_Finish(ptr noundef %118)
  store ptr %119, ptr %2, align 8
  store i32 1, ptr %8, align 4
  br label %122

120:                                              ; preds = %110, %116, %43, %38
  %121 = load ptr, ptr %7, align 8, !tbaa !77
  call void @PyUnicodeWriter_Discard(ptr noundef %121)
  store ptr null, ptr %2, align 8
  store i32 1, ptr %8, align 4
  br label %122

122:                                              ; preds = %120, %117, %110, %29
  call void @llvm.lifetime.end.p0(i64 8, ptr %7) #9
  call void @llvm.lifetime.end.p0(i64 8, ptr %6) #9
  call void @llvm.lifetime.end.p0(i64 8, ptr %5) #9
  call void @llvm.lifetime.end.p0(i64 8, ptr %4) #9
  %123 = load ptr, ptr %2, align 8
  ret ptr %123
}