; Function Attrs: nounwind uwtable
define internal ptr @structseq_repr(ptr noundef readonly captures(none) %0) #0 {
  %2 = getelementptr i8, ptr %0, i64 8
  %.val = load ptr, ptr %2, align 8, !tbaa !22
  %3 = getelementptr inbounds nuw i8, ptr %.val, i64 24
  %4 = load ptr, ptr %3, align 8, !tbaa !9
  %5 = tail call i64 @strlen(ptr noundef nonnull dereferenceable(1) %4) #10
  %6 = getelementptr i8, ptr %0, i64 16
  %.val37 = load i64, ptr %6, align 8, !tbaa !21
  %7 = mul i64 %.val37, 5
  %8 = add i64 %5, 2
  %9 = add i64 %8, %7
  %10 = tail call ptr @PyUnicodeWriter_Create(i64 noundef %9) #9
  %11 = icmp eq ptr %10, null
  br i1 %11, label %56, label %12

12:                                               ; preds = %1
  %13 = load ptr, ptr %3, align 8, !tbaa !9
  %14 = tail call i32 @PyUnicodeWriter_WriteUTF8(ptr noundef nonnull %10, ptr noundef %13, i64 noundef %5) #9
  %15 = icmp slt i32 %14, 0
  br i1 %15, label %.thread42, label %16

16:                                               ; preds = %12
  %17 = tail call i32 @PyUnicodeWriter_WriteChar(ptr noundef nonnull %10, i32 noundef 40) #9
  %18 = icmp slt i32 %17, 0
  br i1 %18, label %.thread42, label %.preheader

.preheader:                                       ; preds = %16
  %.val3846 = load i64, ptr %6, align 8, !tbaa !21
  %19 = icmp sgt i64 %.val3846, 0
  br i1 %19, label %.lr.ph, label %._crit_edge

.lr.ph:                                           ; preds = %.preheader
  %20 = getelementptr inbounds nuw i8, ptr %.val, i64 240
  %21 = getelementptr inbounds nuw i8, ptr %0, i64 24
  br label %22

22:                                               ; preds = %.lr.ph, %49
  %.03447 = phi i64 [ 0, %.lr.ph ], [ %50, %49 ]
  %.not = icmp eq i64 %.03447, 0
  br i1 %.not, label %29, label %23

23:                                               ; preds = %22
  %24 = tail call i32 @PyUnicodeWriter_WriteChar(ptr noundef nonnull %10, i32 noundef 44) #9
  %25 = icmp slt i32 %24, 0
  br i1 %25, label %.thread42, label %26

26:                                               ; preds = %23
  %27 = tail call i32 @PyUnicodeWriter_WriteChar(ptr noundef nonnull %10, i32 noundef 32) #9
  %28 = icmp slt i32 %27, 0
  br i1 %28, label %.thread42, label %29

29:                                               ; preds = %26, %22
  %30 = load ptr, ptr %20, align 8, !tbaa !51
  %31 = getelementptr %struct.PyMemberDef, ptr %30, i64 %.03447
  %32 = load ptr, ptr %31, align 8, !tbaa !31
  %33 = icmp eq ptr %32, null
  br i1 %33, label %34, label %38

34:                                               ; preds = %29
  %35 = load ptr, ptr @PyExc_SystemError, align 8, !tbaa !4
  %36 = load ptr, ptr %3, align 8, !tbaa !9
  %37 = tail call ptr (ptr, ptr, ...) @PyErr_Format(ptr noundef %35, ptr noundef nonnull @.str.4, i64 noundef %.03447, ptr noundef %36) #9
  br label %.thread42

38:                                               ; preds = %29
  %39 = tail call i32 @PyUnicodeWriter_WriteUTF8(ptr noundef nonnull %10, ptr noundef nonnull %32, i64 noundef -1) #9
  %40 = icmp slt i32 %39, 0
  br i1 %40, label %.thread42, label %41

41:                                               ; preds = %38
  %42 = tail call i32 @PyUnicodeWriter_WriteChar(ptr noundef nonnull %10, i32 noundef 61) #9
  %43 = icmp slt i32 %42, 0
  br i1 %43, label %.thread42, label %44

44:                                               ; preds = %41
  %45 = getelementptr [1 x ptr], ptr %21, i64 0, i64 %.03447
  %46 = load ptr, ptr %45, align 8, !tbaa !4
  %47 = tail call i32 @PyUnicodeWriter_WriteRepr(ptr noundef nonnull %10, ptr noundef %46) #9
  %48 = icmp slt i32 %47, 0
  br i1 %48, label %.thread42, label %49

49:                                               ; preds = %44
  %50 = add nuw nsw i64 %.03447, 1
  %.val38 = load i64, ptr %6, align 8, !tbaa !21
  %51 = icmp slt i64 %50, %.val38
  br i1 %51, label %22, label %._crit_edge, !llvm.loop !223

._crit_edge:                                      ; preds = %49, %.preheader
  %52 = tail call i32 @PyUnicodeWriter_WriteChar(ptr noundef nonnull %10, i32 noundef 41) #9
  %53 = icmp slt i32 %52, 0
  br i1 %53, label %.thread42, label %54

54:                                               ; preds = %._crit_edge
  %55 = tail call ptr @PyUnicodeWriter_Finish(ptr noundef nonnull %10) #9
  br label %56

.thread42:                                        ; preds = %44, %41, %38, %26, %23, %34, %._crit_edge, %16, %12
  tail call void @PyUnicodeWriter_Discard(ptr noundef nonnull %10) #9
  br label %56

56:                                               ; preds = %1, %.thread42, %54
  %.0 = phi ptr [ null, %.thread42 ], [ %55, %54 ], [ null, %1 ]
  ret ptr %.0
}